target datalayout = "e-m:e-p270:32:32-p271:32:32-p272:64:64-i64:64-i128:128-f80:128-n8:16:32:64-S128"
target triple = "x86_64-pc-linux-gnu"

%"class.icu_77::UnicodeString" = type { %"class.icu_77::Replaceable", %"union.icu_77::UnicodeString::StackBufferOrFields" }
%"class.icu_77::Replaceable" = type { %"class.icu_77::UObject" }
%"class.icu_77::UObject" = type { ptr }
%"union.icu_77::UnicodeString::StackBufferOrFields" = type { %struct.anon.0, [32 x i8] }
%struct.anon.0 = type { i16, i32, i32, ptr }
%"class.icu_77::DateTimePatternGenerator" = type <{ %"class.icu_77::UObject", %"class.icu_77::Locale", ptr, ptr, ptr, ptr, [16 x %"class.icu_77::UnicodeString"], [16 x [3 x %"class.icu_77::UnicodeString"]], [4 x %"class.icu_77::UnicodeString"], %"class.icu_77::UnicodeString", ptr, ptr, %"class.icu_77::UnicodeString", i16, [2 x i8], [7 x i32], i32, [4 x i8] }>
%"class.icu_77::Locale" = type <{ %"class.icu_77::UObject", [12 x i8], [6 x i8], [4 x i8], [2 x i8], i32, [4 x i8], ptr, [157 x i8], [3 x i8], ptr, i8, [7 x i8] }>
%"class.icu_77::Hashtable" = type { ptr, %struct.UHashtable }
%struct.UHashtable = type { ptr, ptr, ptr, ptr, ptr, ptr, i32, i32, i32, i32, float, float, i8, i8 }

; Function Attrs: inlinehint mustprogress uwtable
define linkonce_odr noundef i32 @_ZN6icu_779Hashtable4putiERKNS_13UnicodeStringEiR10UErrorCode(ptr noundef nonnull align 8 dereferenceable(88) %0, ptr noundef nonnull align 8 dereferenceable(64) %1, i32 noundef %2, ptr noundef nonnull align 4 dereferenceable(4) %3) #3 comdat align 2 personality ptr @__gxx_personality_v0 {
  %5 = alloca ptr, align 8
  %6 = alloca ptr, align 8
  %7 = alloca i32, align 4
  %8 = alloca ptr, align 8
  %9 = alloca i1, align 1
  %10 = alloca ptr, align 8
  %11 = alloca i32, align 4
  store ptr %0, ptr %5, align 8, !tbaa !87
  store ptr %1, ptr %6, align 8, !tbaa !60
  store i32 %2, ptr %7, align 4, !tbaa !14
  store ptr %3, ptr %8, align 8, !tbaa !22
  %12 = load ptr, ptr %5, align 8
  %13 = getelementptr inbounds nuw %"class.icu_77::Hashtable", ptr %12, i32 0, i32 0
  %14 = load ptr, ptr %13, align 8, !tbaa !97
  %15 = call noundef ptr @_ZN6icu_777UMemorynwEm(i64 noundef 64) #13
  %16 = icmp eq ptr %15, null
  store i1 false, ptr %9, align 1
  br i1 %16, label %20, label %17

17:                                               ; preds = %4
  store i1 true, ptr %9, align 1
  %18 = load ptr, ptr %6, align 8, !tbaa !60
  invoke void @_ZN6icu_7713UnicodeStringC1ERKS0_(ptr noundef nonnull align 8 dereferenceable(64) %15, ptr noundef nonnull align 8 dereferenceable(64) %18)
          to label %19 unwind label %25

19:                                               ; preds = %17
  br label %20

20:                                               ; preds = %19, %4
  %21 = phi ptr [ %15, %19 ], [ null, %4 ]
  %22 = load i32, ptr %7, align 4, !tbaa !14
  %23 = load ptr, ptr %8, align 8, !tbaa !22
  %24 = call i32 @uhash_puti_77(ptr noundef %14, ptr noundef %21, i32 noundef %22, ptr noundef %23)
  ret i32 %24

25:                                               ; preds = %17
  %26 = landingpad { ptr, i32 }
          cleanup
  %27 = extractvalue { ptr, i32 } %26, 0
  store ptr %27, ptr %10, align 8
  %28 = extractvalue { ptr, i32 } %26, 1
  store i32 %28, ptr %11, align 4
  %29 = load i1, ptr %9, align 1
  br i1 %29, label %30, label %31

30:                                               ; preds = %25
  call void @_ZN6icu_777UMemorydlEPv(ptr noundef %15) #13
  br label %31

31:                                               ; preds = %30, %25
  br label %32

32:                                               ; preds = %31
  %33 = load ptr, ptr %10, align 8
  %34 = load i32, ptr %11, align 4
  %35 = insertvalue { ptr, i32 } poison, ptr %33, 0
  %36 = insertvalue { ptr, i32 } %35, i32 %34, 1
  resume { ptr, i32 } %36
}

; Function Attrs: mustprogress uwtable
define void @_ZN6icu_7724DateTimePatternGenerator18setAvailableFormatERKNS_13UnicodeStringER10UErrorCode(ptr noundef nonnull align 8 dereferenceable(4796) %0, ptr noundef nonnull align 8 dereferenceable(64) %1, ptr noundef nonnull align 4 dereferenceable(4) %2) #1 align 2 {
  %4 = alloca ptr, align 8
  %5 = alloca ptr, align 8
  %6 = alloca ptr, align 8
  store ptr %0, ptr %4, align 8, !tbaa !23
  store ptr %1, ptr %5, align 8, !tbaa !60
  store ptr %2, ptr %6, align 8, !tbaa !22
  %7 = load ptr, ptr %4, align 8
  %8 = getelementptr inbounds nuw %"class.icu_77::DateTimePatternGenerator", ptr %7, i32 0, i32 11
  %9 = load ptr, ptr %8, align 8, !tbaa !51
  %10 = load ptr, ptr %5, align 8, !tbaa !60
  %11 = load ptr, ptr %6, align 8, !tbaa !22
  %12 = call noundef i32 @_ZN6icu_779Hashtable4putiERKNS_13UnicodeStringEiR10UErrorCode(ptr noundef nonnull align 8 dereferenceable(88) %9, ptr noundef nonnull align 8 dereferenceable(64) %10, i32 noundef 1, ptr noundef nonnull align 4 dereferenceable(4) %11)
  ret void
}