; Function Attrs: mustprogress uwtable
define void @_ZN6icu_7724DateTimePatternGenerator18setAvailableFormatERKNS_13UnicodeStringER10UErrorCode(ptr noundef nonnull readonly align 8 captures(none) dereferenceable(4796) %0, ptr noundef nonnull align 8 dereferenceable(64) %1, ptr noundef nonnull align 4 dereferenceable(4) %2) local_unnamed_addr #1 align 2 personality ptr @__gxx_personality_v0 {
  %4 = getelementptr inbounds nuw i8, ptr %0, i64 4688
  %5 = load ptr, ptr %4, align 8, !tbaa !48
  %6 = load ptr, ptr %5, align 8, !tbaa !66
  %7 = tail call noundef ptr @_ZN6icu_777UMemorynwEm(i64 noundef 64) #35
  %8 = icmp eq ptr %7, null
  br i1 %8, label %_ZN6icu_779Hashtable4putiERKNS_13UnicodeStringEiR10UErrorCode.exit, label %9

9:                                                ; preds = %3
  invoke void @_ZN6icu_7713UnicodeStringC1ERKS0_(ptr noundef nonnull align 8 dereferenceable(64) %7, ptr noundef nonnull align 8 dereferenceable(64) %1)
          to label %_ZN6icu_779Hashtable4putiERKNS_13UnicodeStringEiR10UErrorCode.exit unwind label %10

10:                                               ; preds = %9
  %11 = landingpad { ptr, i32 }
          cleanup
  tail call void @_ZN6icu_777UMemorydlEPv(ptr noundef nonnull %7) #35
  resume { ptr, i32 } %11

_ZN6icu_779Hashtable4putiERKNS_13UnicodeStringEiR10UErrorCode.exit: ; preds = %3, %9
  %12 = tail call noundef i32 @uhash_puti_77(ptr noundef %6, ptr noundef %7, i32 noundef 1, ptr noundef nonnull align 4 dereferenceable(4) %2)
  ret void
}